target datalayout = "e-m:e-p270:32:32-p271:32:32-p272:64:64-i64:64-i128:128-f80:128-n8:16:32:64-S128"
target triple = "x86_64-pc-linux-gnu"

@.str = private unnamed_addr constant [22 x i8] c"ppos+count <= maxPath\00", align 1
@.str.1 = private unnamed_addr constant [153 x i8] c"generated/home/dtcxzyw/WorkSpace/Projects/compilers/llvm-opt-benchmark/bench/recastnavigation/recastnavigation/DetourCrowd/Source/DetourPathCorridor.cpp\00", align 1

; Function Attrs: mustprogress nounwind uwtable
define linkonce_odr noundef i32 @_Z5dtMinIiET_S0_S0_(i32 noundef %0, i32 noundef %1) #1 comdat {
  %3 = alloca i32, align 4
  %4 = alloca i32, align 4
  store i32 %0, ptr %3, align 4
  store i32 %1, ptr %4, align 4
  %5 = load i32, ptr %3, align 4
  %6 = load i32, ptr %4, align 4
  %7 = icmp slt i32 %5, %6
  br i1 %7, label %8, label %10

8:                                                ; preds = %2
  %9 = load i32, ptr %3, align 4
  br label %12

10:                                               ; preds = %2
  %11 = load i32, ptr %4, align 4
  br label %12

12:                                               ; preds = %10, %8
  %13 = phi i32 [ %9, %8 ], [ %11, %10 ]
  ret i32 %13
}

; Function Attrs: mustprogress uwtable
define noundef i32 @_Z23dtMergeCorridorEndMovedPjiiPKji(ptr noundef %0, i32 noundef %1, i32 noundef %2, ptr noundef %3, i32 noundef %4) #0 {
  %6 = alloca i32, align 4
  %7 = alloca ptr, align 8
  %8 = alloca i32, align 4
  %9 = alloca i32, align 4
  %10 = alloca ptr, align 8
  %11 = alloca i32, align 4
  %12 = alloca i32, align 4
  %13 = alloca i32, align 4
  %14 = alloca i32, align 4
  %15 = alloca i8, align 1
  %16 = alloca i32, align 4
  %17 = alloca i32, align 4
  %18 = alloca i32, align 4
  %19 = alloca i32, align 4
  %20 = alloca ptr, align 8
  store ptr %0, ptr %7, align 8
  store i32 %1, ptr %8, align 4
  store i32 %2, ptr %9, align 4
  store ptr %3, ptr %10, align 8
  store i32 %4, ptr %11, align 4
  store i32 -1, ptr %12, align 4
  store i32 -1, ptr %13, align 4
  store i32 0, ptr %14, align 4
  br label %21

21:                                               ; preds = %55, %5
  %22 = load i32, ptr %14, align 4
  %23 = load i32, ptr %8, align 4
  %24 = icmp slt i32 %22, %23
  br i1 %24, label %25, label %58

25:                                               ; preds = %21
  store i8 0, ptr %15, align 1
  %26 = load i32, ptr %11, align 4
  %27 = sub nsw i32 %26, 1
  store i32 %27, ptr %16, align 4
  br label %28

28:                                               ; preds = %47, %25
  %29 = load i32, ptr %16, align 4
  %30 = icmp sge i32 %29, 0
  br i1 %30, label %31, label %50

31:                                               ; preds = %28
  %32 = load ptr, ptr %7, align 8
  %33 = load i32, ptr %14, align 4
  %34 = sext i32 %33 to i64
  %35 = getelementptr inbounds i32, ptr %32, i64 %34
  %36 = load i32, ptr %35, align 4
  %37 = load ptr, ptr %10, align 8
  %38 = load i32, ptr %16, align 4
  %39 = sext i32 %38 to i64
  %40 = getelementptr inbounds i32, ptr %37, i64 %39
  %41 = load i32, ptr %40, align 4
  %42 = icmp eq i32 %36, %41
  br i1 %42, label %43, label %46

43:                                               ; preds = %31
  %44 = load i32, ptr %14, align 4
  store i32 %44, ptr %12, align 4
  %45 = load i32, ptr %16, align 4
  store i32 %45, ptr %13, align 4
  store i8 1, ptr %15, align 1
  br label %46

46:                                               ; preds = %43, %31
  br label %47

47:                                               ; preds = %46
  %48 = load i32, ptr %16, align 4
  %49 = add nsw i32 %48, -1
  store i32 %49, ptr %16, align 4
  br label %28, !llvm.loop !8

50:                                               ; preds = %28
  %51 = load i8, ptr %15, align 1
  %52 = trunc i8 %51 to i1
  br i1 %52, label %53, label %54

53:                                               ; preds = %50
  br label %58

54:                                               ; preds = %50
  br label %55

55:                                               ; preds = %54
  %56 = load i32, ptr %14, align 4
  %57 = add nsw i32 %56, 1
  store i32 %57, ptr %14, align 4
  br label %21, !llvm.loop !9

58:                                               ; preds = %53, %21
  %59 = load i32, ptr %12, align 4
  %60 = icmp eq i32 %59, -1
  br i1 %60, label %64, label %61

61:                                               ; preds = %58
  %62 = load i32, ptr %13, align 4
  %63 = icmp eq i32 %62, -1
  br i1 %63, label %64, label %66

64:                                               ; preds = %61, %58
  %65 = load i32, ptr %8, align 4
  store i32 %65, ptr %6, align 4
  br label %110

66:                                               ; preds = %61
  %67 = load i32, ptr %12, align 4
  %68 = add nsw i32 %67, 1
  store i32 %68, ptr %17, align 4
  %69 = load i32, ptr %13, align 4
  %70 = add nsw i32 %69, 1
  store i32 %70, ptr %18, align 4
  %71 = load i32, ptr %11, align 4
  %72 = load i32, ptr %18, align 4
  %73 = sub nsw i32 %71, %72
  %74 = load i32, ptr %9, align 4
  %75 = load i32, ptr %17, align 4
  %76 = sub nsw i32 %74, %75
  %77 = call noundef i32 @_Z5dtMinIiET_S0_S0_(i32 noundef %73, i32 noundef %76)
  store i32 %77, ptr %19, align 4
  %78 = call noundef ptr @_Z21dtAssertFailGetCustomv()
  store ptr %78, ptr %20, align 8
  %79 = load ptr, ptr %20, align 8
  %80 = icmp eq ptr %79, null
  br i1 %80, label %81, label %82

81:                                               ; preds = %66
  br label %91

82:                                               ; preds = %66
  %83 = load i32, ptr %17, align 4
  %84 = load i32, ptr %19, align 4
  %85 = add nsw i32 %83, %84
  %86 = load i32, ptr %9, align 4
  %87 = icmp sle i32 %85, %86
  br i1 %87, label %90, label %88

88:                                               ; preds = %82
  %89 = load ptr, ptr %20, align 8
  call void %89(ptr noundef @.str, ptr noundef @.str.1, i32 noundef 103)
  br label %90

90:                                               ; preds = %88, %82
  br label %91

91:                                               ; preds = %90, %81
  %92 = load i32, ptr %19, align 4
  %93 = icmp ne i32 %92, 0
  br i1 %93, label %94, label %106

94:                                               ; preds = %91
  %95 = load ptr, ptr %7, align 8
  %96 = load i32, ptr %17, align 4
  %97 = sext i32 %96 to i64
  %98 = getelementptr inbounds i32, ptr %95, i64 %97
  %99 = load ptr, ptr %10, align 8
  %100 = load i32, ptr %18, align 4
  %101 = sext i32 %100 to i64
  %102 = getelementptr inbounds i32, ptr %99, i64 %101
  %103 = load i32, ptr %19, align 4
  %104 = sext i32 %103 to i64
  %105 = mul i64 4, %104
  call void @llvm.memcpy.p0.p0.i64(ptr align 4 %98, ptr align 4 %102, i64 %105, i1 false)
  br label %106

106:                                              ; preds = %94, %91
  %107 = load i32, ptr %17, align 4
  %108 = load i32, ptr %19, align 4
  %109 = add nsw i32 %107, %108
  store i32 %109, ptr %6, align 4
  br label %110

110:                                              ; preds = %106, %64
  %111 = load i32, ptr %6, align 4
  ret i32 %111
}