; Function Attrs: mustprogress uwtable
define noundef i32 @_Z23dtMergeCorridorEndMovedPjiiPKji(ptr noundef captures(none) %0, i32 noundef %1, i32 noundef %2, ptr noundef readonly captures(none) %3, i32 noundef %4) local_unnamed_addr #2 {
  %6 = icmp sgt i32 %1, 0
  %7 = icmp sgt i32 %4, 0
  %or.cond75 = and i1 %6, %7
  br i1 %or.cond75, label %.preheader.us.preheader, label %._crit_edge58.thread

.preheader.us.preheader:                          ; preds = %5
  %8 = zext nneg i32 %4 to i64
  %9 = zext nneg i32 %1 to i64
  br label %.preheader.us

.preheader.us:                                    ; preds = %.preheader.us.preheader, %._crit_edge.us
  %indvars.iv69 = phi i64 [ 0, %.preheader.us.preheader ], [ %indvars.iv.next70, %._crit_edge.us ]
  %.03657.us = phi i32 [ -1, %.preheader.us.preheader ], [ %.3.us, %._crit_edge.us ]
  %.03756.us = phi i32 [ -1, %.preheader.us.preheader ], [ %.340.us, %._crit_edge.us ]
  %10 = getelementptr inbounds nuw i32, ptr %0, i64 %indvars.iv69
  %11 = load i32, ptr %10, align 4
  %12 = trunc nuw nsw i64 %indvars.iv69 to i32
  br label %13

13:                                               ; preds = %.preheader.us, %13
  %indvars.iv = phi i64 [ %8, %.preheader.us ], [ %indvars.iv.next, %13 ]
  %.252.us = phi i32 [ %.03657.us, %.preheader.us ], [ %.3.us, %13 ]
  %.23951.us = phi i32 [ %.03756.us, %.preheader.us ], [ %.340.us, %13 ]
  %.04349.us = phi i1 [ false, %.preheader.us ], [ %.144.us, %13 ]
  %indvars.iv.next = add nsw i64 %indvars.iv, -1
  %14 = getelementptr inbounds nuw i32, ptr %3, i64 %indvars.iv.next
  %15 = load i32, ptr %14, align 4
  %16 = icmp eq i32 %11, %15
  %.144.us = select i1 %16, i1 true, i1 %.04349.us
  %17 = trunc nuw nsw i64 %indvars.iv.next to i32
  %.340.us = select i1 %16, i32 %17, i32 %.23951.us
  %.3.us = select i1 %16, i32 %12, i32 %.252.us
  %18 = icmp sgt i64 %indvars.iv, 1
  br i1 %18, label %13, label %._crit_edge.us, !llvm.loop !8

._crit_edge.us:                                   ; preds = %13
  %indvars.iv.next70 = add nuw nsw i64 %indvars.iv69, 1
  %19 = icmp samesign uge i64 %indvars.iv.next70, %9
  %or.cond67.not = select i1 %.144.us, i1 true, i1 %19
  br i1 %or.cond67.not, label %._crit_edge58, label %.preheader.us, !llvm.loop !9

._crit_edge58:                                    ; preds = %._crit_edge.us
  %20 = icmp eq i32 %.3.us, -1
  %21 = icmp eq i32 %.340.us, -1
  %or.cond = select i1 %20, i1 true, i1 %21
  br i1 %or.cond, label %._crit_edge58.thread, label %22

22:                                               ; preds = %._crit_edge58
  %23 = add nuw nsw i32 %.3.us, 1
  %24 = add nuw nsw i32 %.340.us, 1
  %25 = sub nsw i32 %4, %24
  %26 = sub nsw i32 %2, %23
  %27 = tail call noundef i32 @llvm.smin.i32(i32 %25, i32 %26)
  %28 = tail call noundef ptr @_Z21dtAssertFailGetCustomv()
  %29 = add nsw i32 %27, %23
  %.not47 = icmp eq i32 %27, 0
  br i1 %.not47, label %._crit_edge58.thread, label %30

30:                                               ; preds = %22
  %31 = sext i32 %23 to i64
  %32 = getelementptr inbounds i32, ptr %0, i64 %31
  %33 = zext nneg i32 %24 to i64
  %34 = getelementptr inbounds nuw i32, ptr %3, i64 %33
  %35 = sext i32 %27 to i64
  %36 = shl nsw i64 %35, 2
  tail call void @llvm.memcpy.p0.p0.i64(ptr nonnull align 4 %32, ptr nonnull align 4 %34, i64 %36, i1 false)
  br label %._crit_edge58.thread

._crit_edge58.thread:                             ; preds = %5, %22, %30, %._crit_edge58
  %.0 = phi i32 [ %1, %._crit_edge58 ], [ %29, %30 ], [ %29, %22 ], [ %1, %5 ]
  ret i32 %.0
}